target datalayout = "e-m:e-p270:32:32-p271:32:32-p272:64:64-i64:64-i128:128-f80:128-n8:16:32:64-S128"
target triple = "x86_64-pc-linux-gnu"

%class.symbol = type { ptr }
%class.assert_soft_cmd = type { %class.parametric_cmd, i32, ptr, ptr }
%class.parametric_cmd = type { %class.cmd, %class.symbol, ptr, %class.params_ref, %class.scoped_ptr.65 }
%class.cmd = type { ptr, %class.symbol, i32, i32 }
%class.params_ref = type { ptr }
%class.scoped_ptr.65 = type { ptr }
%class.min_maximize_cmd = type { %class.cmd, i8, ptr }
%class.get_objectives_cmd = type { %class.cmd, ptr }

@.str = private unnamed_addr constant [12 x i8] c"assert-soft\00", align 1
@_ZTV14parametric_cmd = external unnamed_addr constant { [32 x ptr] }, align 8
@.str.20 = private unnamed_addr constant [9 x i8] c"maximize\00", align 1
@.str.21 = private unnamed_addr constant [9 x i8] c"minimize\00", align 1
@.str.25 = private unnamed_addr constant [15 x i8] c"get-objectives\00", align 1

; Function Attrs: mustprogress nounwind uwtable
define linkonce_odr hidden void @_ZN3cmdD2Ev(ptr noundef nonnull align 8 dereferenceable(24) %0) unnamed_addr #4 comdat align 2 {
  %2 = alloca ptr, align 8
  store ptr %0, ptr %2, align 8, !tbaa !63
  ret void
}

; Function Attrs: mustprogress nounwind uwtable
define linkonce_odr hidden void @_ZN10scoped_ptrI12param_descrsEC2EPS0_(ptr noundef nonnull align 8 dereferenceable(8) %0, ptr noundef %1) unnamed_addr #4 comdat align 2 {
  %3 = alloca ptr, align 8
  %4 = alloca ptr, align 8
  store ptr %0, ptr %3, align 8, !tbaa !95
  store ptr %1, ptr %4, align 8, !tbaa !88
  %5 = load ptr, ptr %3, align 8
  %6 = getelementptr inbounds nuw %class.scoped_ptr.65, ptr %5, i32 0, i32 0
  %7 = load ptr, ptr %4, align 8, !tbaa !88
  store ptr %7, ptr %6, align 8, !tbaa !97
  ret void
}

; Function Attrs: mustprogress nounwind uwtable
define linkonce_odr hidden void @_ZN10params_refC2Ev(ptr noundef nonnull align 8 dereferenceable(8) %0) unnamed_addr #4 comdat align 2 {
  %2 = alloca ptr, align 8
  store ptr %0, ptr %2, align 8, !tbaa !92
  %3 = load ptr, ptr %2, align 8
  %4 = getelementptr inbounds nuw %class.params_ref, ptr %3, i32 0, i32 0
  store ptr null, ptr %4, align 8, !tbaa !94
  ret void
}

; Function Attrs: mustprogress nounwind uwtable
define linkonce_odr hidden void @_ZN6symbolC2Ev(ptr noundef nonnull align 8 dereferenceable(8) %0) unnamed_addr #4 comdat align 2 {
  %2 = alloca ptr, align 8
  store ptr %0, ptr %2, align 8, !tbaa !70
  %3 = load ptr, ptr %2, align 8
  %4 = getelementptr inbounds nuw %class.symbol, ptr %3, i32 0, i32 0
  store ptr null, ptr %4, align 8, !tbaa !91
  ret void
}

; Function Attrs: mustprogress uwtable
define linkonce_odr hidden void @_ZN3cmdC2EPKc(ptr noundef nonnull align 8 dereferenceable(24) %0, ptr noundef %1) unnamed_addr #6 comdat align 2 {
  %3 = alloca ptr, align 8
  %4 = alloca ptr, align 8
  store ptr %0, ptr %3, align 8, !tbaa !63
  store ptr %1, ptr %4, align 8, !tbaa !61
  %5 = load ptr, ptr %3, align 8
  store ptr getelementptr inbounds inrange(-16, 224) ({ [30 x ptr] }, ptr @_ZTV3cmd, i32 0, i32 0, i32 2), ptr %5, align 8, !tbaa !34
  %6 = getelementptr inbounds nuw %class.cmd, ptr %5, i32 0, i32 1
  %7 = load ptr, ptr %4, align 8, !tbaa !61
  call void @_ZN6symbolC1EPKc(ptr noundef nonnull align 8 dereferenceable(8) %6, ptr noundef %7)
  %8 = getelementptr inbounds nuw %class.cmd, ptr %5, i32 0, i32 2
  store i32 0, ptr %8, align 8, !tbaa !89
  %9 = getelementptr inbounds nuw %class.cmd, ptr %5, i32 0, i32 3
  store i32 0, ptr %9, align 4, !tbaa !90
  ret void
}

; Function Attrs: mustprogress uwtable
define linkonce_odr hidden void @_ZN14parametric_cmdC2EPKc(ptr noundef nonnull align 8 dereferenceable(56) %0, ptr noundef %1) unnamed_addr #6 comdat align 2 personality ptr @__gxx_personality_v0 {
  %3 = alloca ptr, align 8
  %4 = alloca ptr, align 8
  %5 = alloca ptr, align 8
  %6 = alloca i32, align 4
  store ptr %0, ptr %3, align 8, !tbaa !59
  store ptr %1, ptr %4, align 8, !tbaa !61
  %7 = load ptr, ptr %3, align 8
  %8 = load ptr, ptr %4, align 8, !tbaa !61
  call void @_ZN3cmdC2EPKc(ptr noundef nonnull align 8 dereferenceable(24) %7, ptr noundef %8)
  store ptr getelementptr inbounds inrange(-16, 240) ({ [32 x ptr] }, ptr @_ZTV14parametric_cmd, i32 0, i32 0, i32 2), ptr %7, align 8, !tbaa !34
  %9 = getelementptr inbounds nuw %class.parametric_cmd, ptr %7, i32 0, i32 1
  call void @_ZN6symbolC2Ev(ptr noundef nonnull align 8 dereferenceable(8) %9) #3
  %10 = getelementptr inbounds nuw %class.parametric_cmd, ptr %7, i32 0, i32 2
  store ptr null, ptr %10, align 8, !tbaa !62
  %11 = getelementptr inbounds nuw %class.parametric_cmd, ptr %7, i32 0, i32 3
  call void @_ZN10params_refC2Ev(ptr noundef nonnull align 8 dereferenceable(8) %11) #3
  %12 = getelementptr inbounds nuw %class.parametric_cmd, ptr %7, i32 0, i32 4
  invoke void @_ZN10scoped_ptrI12param_descrsEC2EPS0_(ptr noundef nonnull align 8 dereferenceable(8) %12, ptr noundef null)
          to label %13 unwind label %14

13:                                               ; preds = %2
  ret void

14:                                               ; preds = %2
  %15 = landingpad { ptr, i32 }
          cleanup
  %16 = extractvalue { ptr, i32 } %15, 0
  store ptr %16, ptr %5, align 8
  %17 = extractvalue { ptr, i32 } %15, 1
  store i32 %17, ptr %6, align 4
  call void @_ZN10params_refD1Ev(ptr noundef nonnull align 8 dereferenceable(8) %11) #3
  call void @_ZN3cmdD2Ev(ptr noundef nonnull align 8 dereferenceable(24) %7) #3
  br label %18

18:                                               ; preds = %14
  %19 = load ptr, ptr %5, align 8
  %20 = load i32, ptr %6, align 4
  %21 = insertvalue { ptr, i32 } poison, ptr %19, 0
  %22 = insertvalue { ptr, i32 } %21, i32 %20, 1
  resume { ptr, i32 } %22
}

; Function Attrs: mustprogress uwtable
define linkonce_odr hidden void @_ZN18get_objectives_cmdC2EPN3opt7contextE(ptr noundef nonnull align 8 dereferenceable(32) %0, ptr noundef %1) unnamed_addr #6 comdat align 2 {
  %3 = alloca ptr, align 8
  %4 = alloca ptr, align 8
  store ptr %0, ptr %3, align 8, !tbaa !55
  store ptr %1, ptr %4, align 8, !tbaa !30
  %5 = load ptr, ptr %3, align 8
  call void @_ZN3cmdC2EPKc(ptr noundef nonnull align 8 dereferenceable(24) %5, ptr noundef @.str.25)
  store ptr getelementptr inbounds inrange(-16, 224) ({ [30 x ptr] }, ptr @_ZTV18get_objectives_cmd, i32 0, i32 0, i32 2), ptr %5, align 8, !tbaa !34
  %6 = getelementptr inbounds nuw %class.get_objectives_cmd, ptr %5, i32 0, i32 1
  %7 = load ptr, ptr %4, align 8, !tbaa !30
  store ptr %7, ptr %6, align 8, !tbaa !57
  ret void
}

; Function Attrs: mustprogress uwtable
define linkonce_odr hidden void @_ZN16min_maximize_cmdC2EbPN3opt7contextE(ptr noundef nonnull align 8 dereferenceable(40) %0, i1 noundef zeroext %1, ptr noundef %2) unnamed_addr #6 comdat align 2 {
  %4 = alloca ptr, align 8
  %5 = alloca i8, align 1
  %6 = alloca ptr, align 8
  store ptr %0, ptr %4, align 8, !tbaa !50
  %7 = zext i1 %1 to i8
  store i8 %7, ptr %5, align 1, !tbaa !10
  store ptr %2, ptr %6, align 8, !tbaa !30
  %8 = load ptr, ptr %4, align 8
  %9 = load i8, ptr %5, align 1, !tbaa !10, !range !12, !noundef !13
  %10 = trunc i8 %9 to i1
  br i1 %10, label %11, label %12

11:                                               ; preds = %3
  br label %13

12:                                               ; preds = %3
  br label %13

13:                                               ; preds = %12, %11
  %14 = phi ptr [ @.str.20, %11 ], [ @.str.21, %12 ]
  %15 = getelementptr inbounds [9 x i8], ptr %14, i64 0, i64 0
  call void @_ZN3cmdC2EPKc(ptr noundef nonnull align 8 dereferenceable(24) %8, ptr noundef %15)
  store ptr getelementptr inbounds inrange(-16, 224) ({ [30 x ptr] }, ptr @_ZTV16min_maximize_cmd, i32 0, i32 0, i32 2), ptr %8, align 8, !tbaa !34
  %16 = getelementptr inbounds nuw %class.min_maximize_cmd, ptr %8, i32 0, i32 1
  %17 = load i8, ptr %5, align 1, !tbaa !10, !range !12, !noundef !13
  %18 = trunc i8 %17 to i1
  %19 = zext i1 %18 to i8
  store i8 %19, ptr %16, align 8, !tbaa !52
  %20 = getelementptr inbounds nuw %class.min_maximize_cmd, ptr %8, i32 0, i32 2
  %21 = load ptr, ptr %6, align 8, !tbaa !30
  store ptr %21, ptr %20, align 8, !tbaa !54
  ret void
}

; Function Attrs: mustprogress uwtable
define linkonce_odr hidden void @_ZN15assert_soft_cmdC2EPN3opt7contextE(ptr noundef nonnull align 8 dereferenceable(80) %0, ptr noundef %1) unnamed_addr #6 comdat align 2 {
  %3 = alloca ptr, align 8
  %4 = alloca ptr, align 8
  store ptr %0, ptr %3, align 8, !tbaa !32
  store ptr %1, ptr %4, align 8, !tbaa !30
  %5 = load ptr, ptr %3, align 8
  call void @_ZN14parametric_cmdC2EPKc(ptr noundef nonnull align 8 dereferenceable(56) %5, ptr noundef @.str)
  store ptr getelementptr inbounds inrange(-16, 240) ({ [32 x ptr] }, ptr @_ZTV15assert_soft_cmd, i32 0, i32 0, i32 2), ptr %5, align 8, !tbaa !34
  %6 = getelementptr inbounds nuw %class.assert_soft_cmd, ptr %5, i32 0, i32 1
  store i32 0, ptr %6, align 8, !tbaa !36
  %7 = getelementptr inbounds nuw %class.assert_soft_cmd, ptr %5, i32 0, i32 2
  store ptr null, ptr %7, align 8, !tbaa !48
  %8 = getelementptr inbounds nuw %class.assert_soft_cmd, ptr %5, i32 0, i32 3
  %9 = load ptr, ptr %4, align 8, !tbaa !30
  store ptr %9, ptr %8, align 8, !tbaa !49
  ret void
}

; Function Attrs: mustprogress uwtable
define hidden void @_Z16install_opt_cmdsR11cmd_contextPN3opt7contextE(ptr noundef nonnull align 8 dereferenceable(896) %0, ptr noundef %1) #6 {
  %3 = alloca ptr, align 8
  %4 = alloca ptr, align 8
  store ptr %0, ptr %3, align 8, !tbaa !28
  store ptr %1, ptr %4, align 8, !tbaa !30
  %5 = load ptr, ptr %3, align 8, !tbaa !28
  %6 = call noalias noundef ptr @_ZN6memory8allocateEm(i64 noundef 80)
  %7 = load ptr, ptr %4, align 8, !tbaa !30
  call void @_ZN15assert_soft_cmdC2EPN3opt7contextE(ptr noundef nonnull align 8 dereferenceable(80) %6, ptr noundef %7)
  call void @_ZN11cmd_context6insertEP3cmd(ptr noundef nonnull align 8 dereferenceable(896) %5, ptr noundef %6)
  %8 = load ptr, ptr %3, align 8, !tbaa !28
  %9 = call noalias noundef ptr @_ZN6memory8allocateEm(i64 noundef 40)
  %10 = load ptr, ptr %4, align 8, !tbaa !30
  call void @_ZN16min_maximize_cmdC2EbPN3opt7contextE(ptr noundef nonnull align 8 dereferenceable(40) %9, i1 noundef zeroext true, ptr noundef %10)
  call void @_ZN11cmd_context6insertEP3cmd(ptr noundef nonnull align 8 dereferenceable(896) %8, ptr noundef %9)
  %11 = load ptr, ptr %3, align 8, !tbaa !28
  %12 = call noalias noundef ptr @_ZN6memory8allocateEm(i64 noundef 40)
  %13 = load ptr, ptr %4, align 8, !tbaa !30
  call void @_ZN16min_maximize_cmdC2EbPN3opt7contextE(ptr noundef nonnull align 8 dereferenceable(40) %12, i1 noundef zeroext false, ptr noundef %13)
  call void @_ZN11cmd_context6insertEP3cmd(ptr noundef nonnull align 8 dereferenceable(896) %11, ptr noundef %12)
  %14 = load ptr, ptr %3, align 8, !tbaa !28
  %15 = call noalias noundef ptr @_ZN6memory8allocateEm(i64 noundef 32)
  %16 = load ptr, ptr %4, align 8, !tbaa !30
  call void @_ZN18get_objectives_cmdC2EPN3opt7contextE(ptr noundef nonnull align 8 dereferenceable(32) %15, ptr noundef %16)
  call void @_ZN11cmd_context6insertEP3cmd(ptr noundef nonnull align 8 dereferenceable(896) %14, ptr noundef %15)
  ret void
}