; Function Attrs: mustprogress uwtable
define hidden void @_Z16install_opt_cmdsR11cmd_contextPN3opt7contextE(ptr noundef nonnull align 8 dereferenceable(896) %0, ptr noundef %1) local_unnamed_addr #4 personality ptr @__gxx_personality_v0 {
  %3 = tail call noalias noundef ptr @_ZN6memory8allocateEm(i64 noundef 80)
  store ptr getelementptr inbounds nuw inrange(-16, 224) (i8, ptr @_ZTV3cmd, i64 16), ptr %3, align 8, !tbaa !3
  %4 = getelementptr inbounds nuw i8, ptr %3, i64 8
  tail call void @_ZN6symbolC1EPKc(ptr noundef nonnull align 8 dereferenceable(8) %4, ptr noundef nonnull @.str)
  %5 = getelementptr inbounds nuw i8, ptr %3, i64 16
  tail call void @llvm.memset.p0.i64(ptr noundef nonnull align 8 dereferenceable(40) %5, i8 0, i64 40, i1 false)
  store ptr getelementptr inbounds nuw inrange(-16, 240) (i8, ptr @_ZTV15assert_soft_cmd, i64 16), ptr %3, align 8, !tbaa !3
  %6 = getelementptr inbounds nuw i8, ptr %3, i64 56
  store i32 0, ptr %6, align 8, !tbaa !6
  %7 = getelementptr inbounds nuw i8, ptr %3, i64 64
  store ptr null, ptr %7, align 8, !tbaa !22
  %8 = getelementptr inbounds nuw i8, ptr %3, i64 72
  store ptr %1, ptr %8, align 8, !tbaa !23
  tail call void @_ZN11cmd_context6insertEP3cmd(ptr noundef nonnull align 8 dereferenceable(896) %0, ptr noundef nonnull %3)
  %9 = tail call noalias noundef ptr @_ZN6memory8allocateEm(i64 noundef 40)
  store ptr getelementptr inbounds nuw inrange(-16, 224) (i8, ptr @_ZTV3cmd, i64 16), ptr %9, align 8, !tbaa !3
  %10 = getelementptr inbounds nuw i8, ptr %9, i64 8
  tail call void @_ZN6symbolC1EPKc(ptr noundef nonnull align 8 dereferenceable(8) %10, ptr noundef nonnull @.str.20)
  %11 = getelementptr inbounds nuw i8, ptr %9, i64 16
  store i32 0, ptr %11, align 8, !tbaa !24
  %12 = getelementptr inbounds nuw i8, ptr %9, i64 20
  store i32 0, ptr %12, align 4, !tbaa !25
  store ptr getelementptr inbounds nuw inrange(-16, 224) (i8, ptr @_ZTV16min_maximize_cmd, i64 16), ptr %9, align 8, !tbaa !3
  %13 = getelementptr inbounds nuw i8, ptr %9, i64 24
  store i8 1, ptr %13, align 8, !tbaa !26
  %14 = getelementptr inbounds nuw i8, ptr %9, i64 32
  store ptr %1, ptr %14, align 8, !tbaa !29
  tail call void @_ZN11cmd_context6insertEP3cmd(ptr noundef nonnull align 8 dereferenceable(896) %0, ptr noundef nonnull %9)
  %15 = tail call noalias noundef ptr @_ZN6memory8allocateEm(i64 noundef 40)
  store ptr getelementptr inbounds nuw inrange(-16, 224) (i8, ptr @_ZTV3cmd, i64 16), ptr %15, align 8, !tbaa !3
  %16 = getelementptr inbounds nuw i8, ptr %15, i64 8
  tail call void @_ZN6symbolC1EPKc(ptr noundef nonnull align 8 dereferenceable(8) %16, ptr noundef nonnull @.str.21)
  %17 = getelementptr inbounds nuw i8, ptr %15, i64 16
  store i32 0, ptr %17, align 8, !tbaa !24
  %18 = getelementptr inbounds nuw i8, ptr %15, i64 20
  store i32 0, ptr %18, align 4, !tbaa !25
  store ptr getelementptr inbounds nuw inrange(-16, 224) (i8, ptr @_ZTV16min_maximize_cmd, i64 16), ptr %15, align 8, !tbaa !3
  %19 = getelementptr inbounds nuw i8, ptr %15, i64 24
  store i8 0, ptr %19, align 8, !tbaa !26
  %20 = getelementptr inbounds nuw i8, ptr %15, i64 32
  store ptr %1, ptr %20, align 8, !tbaa !29
  tail call void @_ZN11cmd_context6insertEP3cmd(ptr noundef nonnull align 8 dereferenceable(896) %0, ptr noundef nonnull %15)
  %21 = tail call noalias noundef ptr @_ZN6memory8allocateEm(i64 noundef 32)
  store ptr getelementptr inbounds nuw inrange(-16, 224) (i8, ptr @_ZTV3cmd, i64 16), ptr %21, align 8, !tbaa !3
  %22 = getelementptr inbounds nuw i8, ptr %21, i64 8
  tail call void @_ZN6symbolC1EPKc(ptr noundef nonnull align 8 dereferenceable(8) %22, ptr noundef nonnull @.str.25)
  %23 = getelementptr inbounds nuw i8, ptr %21, i64 16
  store i32 0, ptr %23, align 8, !tbaa !24
  %24 = getelementptr inbounds nuw i8, ptr %21, i64 20
  store i32 0, ptr %24, align 4, !tbaa !25
  store ptr getelementptr inbounds nuw inrange(-16, 224) (i8, ptr @_ZTV18get_objectives_cmd, i64 16), ptr %21, align 8, !tbaa !3
  %25 = getelementptr inbounds nuw i8, ptr %21, i64 24
  store ptr %1, ptr %25, align 8, !tbaa !30
  tail call void @_ZN11cmd_context6insertEP3cmd(ptr noundef nonnull align 8 dereferenceable(896) %0, ptr noundef nonnull %21)
  ret void
}